target datalayout = "e-m:e-p270:32:32-p271:32:32-p272:64:64-i64:64-i128:128-f80:128-n8:16:32:64-S128"
target triple = "x86_64-pc-linux-gnu"

%struct._zval_struct = type { %union._zend_value, %union.anon, %union.anon.2 }
%union._zend_value = type { i64 }
%union.anon = type { i32 }
%union.anon.2 = type { i32 }
%struct._zend_refcounted_h = type { i32, %union.anon.3 }
%union.anon.3 = type { i32 }
%struct._spl_heap_object = type { ptr, i32, ptr, ptr, %struct._zend_object }
%struct._zend_object = type { %struct._zend_refcounted_h, i32, ptr, ptr, ptr, [1 x %struct._zval_struct] }
%struct._spl_ptr_heap = type { ptr, ptr, ptr, ptr, i32, i32, i64, i64 }

; Function Attrs: nounwind uwtable
define internal ptr @spl_heap_from_obj(ptr noundef %0) #0 {
  %2 = alloca ptr, align 8
  store ptr %0, ptr %2, align 8
  %3 = load ptr, ptr %2, align 8
  %4 = getelementptr inbounds i8, ptr %3, i64 -32
  ret ptr %4
}

; Function Attrs: nounwind uwtable
define internal ptr @spl_pqueue_object_get_gc(ptr noundef %0, ptr noundef %1, ptr noundef %2) #0 {
  %4 = alloca ptr, align 8
  %5 = alloca ptr, align 8
  %6 = alloca ptr, align 8
  %7 = alloca ptr, align 8
  store ptr %0, ptr %4, align 8
  store ptr %1, ptr %5, align 8
  store ptr %2, ptr %6, align 8
  %8 = load ptr, ptr %4, align 8
  %9 = call ptr @spl_heap_from_obj(ptr noundef %8)
  store ptr %9, ptr %7, align 8
  %10 = load ptr, ptr %7, align 8
  %11 = getelementptr inbounds %struct._spl_heap_object, ptr %10, i32 0, i32 0
  %12 = load ptr, ptr %11, align 8
  %13 = getelementptr inbounds %struct._spl_ptr_heap, ptr %12, i32 0, i32 0
  %14 = load ptr, ptr %13, align 8
  %15 = load ptr, ptr %5, align 8
  store ptr %14, ptr %15, align 8
  %16 = load ptr, ptr %7, align 8
  %17 = getelementptr inbounds %struct._spl_heap_object, ptr %16, i32 0, i32 0
  %18 = load ptr, ptr %17, align 8
  %19 = getelementptr inbounds %struct._spl_ptr_heap, ptr %18, i32 0, i32 4
  %20 = load i32, ptr %19, align 8
  %21 = mul nsw i32 2, %20
  %22 = load ptr, ptr %6, align 8
  store i32 %21, ptr %22, align 4
  %23 = load ptr, ptr %4, align 8
  %24 = call ptr @zend_std_get_properties(ptr noundef %23)
  ret ptr %24
}