; Function Attrs: nounwind uwtable
define internal ptr @spl_pqueue_object_get_gc(ptr noundef %0, ptr nocapture noundef writeonly %1, ptr nocapture noundef writeonly %2) #0 {
  %4 = getelementptr inbounds i8, ptr %0, i64 -32
  %5 = load ptr, ptr %4, align 8
  %6 = load ptr, ptr %5, align 8
  store ptr %6, ptr %1, align 8
  %7 = load ptr, ptr %4, align 8
  %8 = getelementptr inbounds i8, ptr %7, i64 32
  %9 = load i32, ptr %8, align 8
  %10 = shl nsw i32 %9, 1
  store i32 %10, ptr %2, align 4
  %11 = tail call ptr @zend_std_get_properties(ptr noundef %0) #14
  ret ptr %11
}